target datalayout = "e-m:e-p270:32:32-p271:32:32-p272:64:64-i64:64-i128:128-f80:128-n8:16:32:64-S128"
target triple = "x86_64-pc-linux-gnu"

%struct.GlobalConfig = type { i8, i8, i8, i8, i8, ptr, ptr, i8, i32, i8, i8, i32, ptr, i8, i8, i64, ptr, i8, i16, i8, ptr, ptr, ptr, ptr, ptr }
%struct.per_transfer = type { ptr, ptr, ptr, ptr, ptr, i64, i64, i64, i64, %struct.timeval, %struct.timeval, ptr, i32, ptr, i32, %struct.ProgressData, %struct.OutStruct, %struct.OutStruct, %struct.OutStruct, %struct.HdrCbData, i64, i64, i64, i64, i64, i64, i64, i64, i8, i8, ptr, ptr, i8, i8, i8, i8, i8, i8 }
%struct.timeval = type { i64, i64 }
%struct.ProgressData = type { i32, i64, %struct.timeval, i32, ptr, i64, i32, i32, i32 }
%struct.OutStruct = type { ptr, i8, i8, i8, i8, ptr, i64, i64 }
%struct.HdrCbData = type { ptr, ptr, ptr, ptr, ptr, ptr, i8 }

@transfers = dso_local global ptr null, align 8
@all_added = internal global i64 0, align 8
@all_pers = internal global i64 0, align 8

; Function Attrs: nounwind uwtable
define internal i32 @add_parallel_transfers(ptr noundef %0, ptr noundef %1, ptr noundef %2, ptr noundef %3, ptr noundef %4) #0 {
  %6 = alloca i32, align 4
  %7 = alloca ptr, align 8
  %8 = alloca ptr, align 8
  %9 = alloca ptr, align 8
  %10 = alloca ptr, align 8
  %11 = alloca ptr, align 8
  %12 = alloca ptr, align 8
  %13 = alloca i32, align 4
  %14 = alloca i32, align 4
  %15 = alloca i8, align 1
  %16 = alloca ptr, align 8
  %17 = alloca i8, align 1
  %18 = alloca i32, align 4
  %19 = alloca i8, align 1
  %20 = alloca i8, align 1
  store ptr %0, ptr %7, align 8, !tbaa !18
  store ptr %1, ptr %8, align 8, !tbaa !41
  store ptr %2, ptr %9, align 8, !tbaa !41
  store ptr %3, ptr %10, align 8, !tbaa !89
  store ptr %4, ptr %11, align 8, !tbaa !89
  call void @llvm.lifetime.start.p0(i64 8, ptr %12) #10
  call void @llvm.lifetime.start.p0(i64 4, ptr %13) #10
  store i32 0, ptr %13, align 4, !tbaa !20
  call void @llvm.lifetime.start.p0(i64 4, ptr %14) #10
  call void @llvm.lifetime.start.p0(i64 1, ptr %15) #10
  store i8 0, ptr %15, align 1, !tbaa !43
  call void @llvm.lifetime.start.p0(i64 8, ptr %16) #10
  %21 = load ptr, ptr %11, align 8, !tbaa !89
  store i8 0, ptr %21, align 1, !tbaa !43
  %22 = load ptr, ptr %10, align 8, !tbaa !89
  store i8 0, ptr %22, align 1, !tbaa !43
  %23 = load i64, ptr @all_pers, align 8, !tbaa !40
  %24 = load ptr, ptr %7, align 8, !tbaa !18
  %25 = getelementptr inbounds nuw %struct.GlobalConfig, ptr %24, i32 0, i32 18
  %26 = load i16, ptr %25, align 2, !tbaa !141
  %27 = zext i16 %26 to i32
  %28 = mul nsw i32 %27, 2
  %29 = sext i32 %28 to i64
  %30 = icmp slt i64 %23, %29
  br i1 %30, label %31, label %49

31:                                               ; preds = %5
  call void @llvm.lifetime.start.p0(i64 1, ptr %17) #10
  store i8 0, ptr %17, align 1, !tbaa !43
  br label %32

32:                                               ; preds = %42, %31
  %33 = load ptr, ptr %7, align 8, !tbaa !18
  %34 = load ptr, ptr %9, align 8, !tbaa !41
  %35 = load ptr, ptr %11, align 8, !tbaa !89
  %36 = call i32 @create_transfer(ptr noundef %33, ptr noundef %34, ptr noundef %35, ptr noundef %17)
  store i32 %36, ptr %13, align 4, !tbaa !20
  %37 = load i32, ptr %13, align 4, !tbaa !20
  %38 = icmp ne i32 %37, 0
  br i1 %38, label %39, label %41

39:                                               ; preds = %32
  %40 = load i32, ptr %13, align 4, !tbaa !20
  store i32 %40, ptr %6, align 4
  store i32 1, ptr %18, align 4
  br label %46

41:                                               ; preds = %32
  br label %42

42:                                               ; preds = %41
  %43 = load i8, ptr %17, align 1, !tbaa !43, !range !44, !noundef !45
  %44 = trunc i8 %43 to i1
  br i1 %44, label %32, label %45, !llvm.loop !142

45:                                               ; preds = %42
  store i32 0, ptr %18, align 4
  br label %46

46:                                               ; preds = %45, %39
  call void @llvm.lifetime.end.p0(i64 1, ptr %17) #10
  %47 = load i32, ptr %18, align 4
  switch i32 %47, label %192 [
    i32 0, label %48
  ]

48:                                               ; preds = %46
  br label %49

49:                                               ; preds = %48, %5
  %50 = load ptr, ptr @transfers, align 8, !tbaa !53
  store ptr %50, ptr %12, align 8, !tbaa !53
  br label %51

51:                                               ; preds = %178, %49
  %52 = load ptr, ptr %12, align 8, !tbaa !53
  %53 = icmp ne ptr %52, null
  br i1 %53, label %54, label %61

54:                                               ; preds = %51
  %55 = load i64, ptr @all_added, align 8, !tbaa !40
  %56 = load ptr, ptr %7, align 8, !tbaa !18
  %57 = getelementptr inbounds nuw %struct.GlobalConfig, ptr %56, i32 0, i32 18
  %58 = load i16, ptr %57, align 2, !tbaa !141
  %59 = zext i16 %58 to i64
  %60 = icmp slt i64 %55, %59
  br label %61

61:                                               ; preds = %54, %51
  %62 = phi i1 [ false, %51 ], [ %60, %54 ]
  br i1 %62, label %63, label %182

63:                                               ; preds = %61
  %64 = load ptr, ptr %12, align 8, !tbaa !53
  %65 = getelementptr inbounds nuw %struct.per_transfer, ptr %64, i32 0, i32 35
  %66 = load i8, ptr %65, align 1, !tbaa !78, !range !44, !noundef !45
  %67 = trunc i8 %66 to i1
  br i1 %67, label %73, label %68

68:                                               ; preds = %63
  %69 = load ptr, ptr %12, align 8, !tbaa !53
  %70 = getelementptr inbounds nuw %struct.per_transfer, ptr %69, i32 0, i32 37
  %71 = load i8, ptr %70, align 1, !tbaa !83, !range !44, !noundef !45
  %72 = trunc i8 %71 to i1
  br i1 %72, label %73, label %74

73:                                               ; preds = %68, %63
  br label %178

74:                                               ; preds = %68
  %75 = load ptr, ptr %12, align 8, !tbaa !53
  %76 = getelementptr inbounds nuw %struct.per_transfer, ptr %75, i32 0, i32 21
  %77 = load i64, ptr %76, align 8, !tbaa !143
  %78 = icmp ne i64 %77, 0
  br i1 %78, label %79, label %86

79:                                               ; preds = %74
  %80 = call i64 @time(ptr noundef null) #10
  %81 = load ptr, ptr %12, align 8, !tbaa !53
  %82 = getelementptr inbounds nuw %struct.per_transfer, ptr %81, i32 0, i32 21
  %83 = load i64, ptr %82, align 8, !tbaa !143
  %84 = icmp slt i64 %80, %83
  br i1 %84, label %85, label %86

85:                                               ; preds = %79
  store i8 1, ptr %15, align 1, !tbaa !43
  br label %178

86:                                               ; preds = %79, %74
  %87 = load ptr, ptr %12, align 8, !tbaa !53
  %88 = getelementptr inbounds nuw %struct.per_transfer, ptr %87, i32 0, i32 35
  store i8 1, ptr %88, align 1, !tbaa !78
  %89 = load ptr, ptr %7, align 8, !tbaa !18
  %90 = load ptr, ptr %12, align 8, !tbaa !53
  %91 = call i32 @pre_transfer(ptr noundef %89, ptr noundef %90)
  store i32 %91, ptr %13, align 4, !tbaa !20
  %92 = load i32, ptr %13, align 4, !tbaa !20
  %93 = icmp ne i32 %92, 0
  br i1 %93, label %94, label %96

94:                                               ; preds = %86
  %95 = load i32, ptr %13, align 4, !tbaa !20
  store i32 %95, ptr %6, align 4
  store i32 1, ptr %18, align 4
  br label %192

96:                                               ; preds = %86
  %97 = call noalias ptr @malloc(i64 noundef 256) #13
  store ptr %97, ptr %16, align 8, !tbaa !24
  %98 = load ptr, ptr %16, align 8, !tbaa !24
  %99 = icmp ne ptr %98, null
  br i1 %99, label %101, label %100

100:                                              ; preds = %96
  store i32 27, ptr %6, align 4
  store i32 1, ptr %18, align 4
  br label %192

101:                                              ; preds = %96
  %102 = load ptr, ptr %12, align 8, !tbaa !53
  %103 = getelementptr inbounds nuw %struct.per_transfer, ptr %102, i32 0, i32 4
  %104 = load ptr, ptr %103, align 8, !tbaa !84
  %105 = load ptr, ptr %7, align 8, !tbaa !18
  %106 = getelementptr inbounds nuw %struct.GlobalConfig, ptr %105, i32 0, i32 19
  %107 = load i8, ptr %106, align 4, !tbaa !144, !range !44, !noundef !45
  %108 = trunc i8 %107 to i1
  %109 = select i1 %108, i64 0, i64 1
  %110 = call i32 (ptr, i32, ...) @curl_easy_setopt(ptr noundef %104, i32 noundef 237, i64 noundef %109)
  %111 = load ptr, ptr %12, align 8, !tbaa !53
  %112 = getelementptr inbounds nuw %struct.per_transfer, ptr %111, i32 0, i32 4
  %113 = load ptr, ptr %112, align 8, !tbaa !84
  %114 = load ptr, ptr %12, align 8, !tbaa !53
  %115 = call i32 (ptr, i32, ...) @curl_easy_setopt(ptr noundef %113, i32 noundef 10103, ptr noundef %114)
  %116 = load ptr, ptr %12, align 8, !tbaa !53
  %117 = getelementptr inbounds nuw %struct.per_transfer, ptr %116, i32 0, i32 4
  %118 = load ptr, ptr %117, align 8, !tbaa !84
  %119 = call i32 (ptr, i32, ...) @curl_easy_setopt(ptr noundef %118, i32 noundef 20219, ptr noundef @xferinfo_cb)
  %120 = load ptr, ptr %12, align 8, !tbaa !53
  %121 = getelementptr inbounds nuw %struct.per_transfer, ptr %120, i32 0, i32 4
  %122 = load ptr, ptr %121, align 8, !tbaa !84
  %123 = load ptr, ptr %12, align 8, !tbaa !53
  %124 = call i32 (ptr, i32, ...) @curl_easy_setopt(ptr noundef %122, i32 noundef 10057, ptr noundef %123)
  %125 = load ptr, ptr %12, align 8, !tbaa !53
  %126 = getelementptr inbounds nuw %struct.per_transfer, ptr %125, i32 0, i32 4
  %127 = load ptr, ptr %126, align 8, !tbaa !84
  %128 = call i32 (ptr, i32, ...) @curl_easy_setopt(ptr noundef %127, i32 noundef 43, i64 noundef 0)
  %129 = load ptr, ptr %8, align 8, !tbaa !41
  %130 = load ptr, ptr %12, align 8, !tbaa !53
  %131 = getelementptr inbounds nuw %struct.per_transfer, ptr %130, i32 0, i32 4
  %132 = load ptr, ptr %131, align 8, !tbaa !84
  %133 = call i32 @curl_multi_add_handle(ptr noundef %129, ptr noundef %132)
  store i32 %133, ptr %14, align 4, !tbaa !20
  %134 = load i32, ptr %14, align 4, !tbaa !20
  %135 = icmp ne i32 %134, 0
  br i1 %135, label %136, label %140

136:                                              ; preds = %101
  br label %137

137:                                              ; preds = %136
  br label %138

138:                                              ; preds = %137
  br label %139

139:                                              ; preds = %138
  store i32 27, ptr %13, align 4, !tbaa !20
  br label %140

140:                                              ; preds = %139, %101
  %141 = load i32, ptr %13, align 4, !tbaa !20
  %142 = icmp ne i32 %141, 0
  br i1 %142, label %156, label %143

143:                                              ; preds = %140
  call void @llvm.lifetime.start.p0(i64 1, ptr %19) #10
  store i8 0, ptr %19, align 1, !tbaa !43
  call void @llvm.lifetime.start.p0(i64 1, ptr %20) #10
  store i8 0, ptr %20, align 1, !tbaa !43
  br label %144

144:                                              ; preds = %152, %143
  %145 = load ptr, ptr %7, align 8, !tbaa !18
  %146 = load ptr, ptr %9, align 8, !tbaa !41
  %147 = call i32 @create_transfer(ptr noundef %145, ptr noundef %146, ptr noundef %19, ptr noundef %20)
  store i32 %147, ptr %13, align 4, !tbaa !20
  %148 = load i32, ptr %13, align 4, !tbaa !20
  %149 = icmp ne i32 %148, 0
  br i1 %149, label %150, label %151

150:                                              ; preds = %144
  br label %155

151:                                              ; preds = %144
  br label %152

152:                                              ; preds = %151
  %153 = load i8, ptr %20, align 1, !tbaa !43, !range !44, !noundef !45
  %154 = trunc i8 %153 to i1
  br i1 %154, label %144, label %155, !llvm.loop !145

155:                                              ; preds = %152, %150
  call void @llvm.lifetime.end.p0(i64 1, ptr %20) #10
  call void @llvm.lifetime.end.p0(i64 1, ptr %19) #10
  br label %156

156:                                              ; preds = %155, %140
  %157 = load i32, ptr %13, align 4, !tbaa !20
  %158 = icmp ne i32 %157, 0
  br i1 %158, label %159, label %162

159:                                              ; preds = %156
  %160 = load ptr, ptr %16, align 8, !tbaa !24
  call void @free(ptr noundef %160) #10
  %161 = load i32, ptr %13, align 4, !tbaa !20
  store i32 %161, ptr %6, align 4
  store i32 1, ptr %18, align 4
  br label %192

162:                                              ; preds = %156
  %163 = load ptr, ptr %16, align 8, !tbaa !24
  %164 = getelementptr inbounds i8, ptr %163, i64 0
  store i8 0, ptr %164, align 1, !tbaa !100
  %165 = load ptr, ptr %12, align 8, !tbaa !53
  %166 = getelementptr inbounds nuw %struct.per_transfer, ptr %165, i32 0, i32 4
  %167 = load ptr, ptr %166, align 8, !tbaa !84
  %168 = load ptr, ptr %16, align 8, !tbaa !24
  %169 = call i32 (ptr, i32, ...) @curl_easy_setopt(ptr noundef %167, i32 noundef 10010, ptr noundef %168)
  %170 = load ptr, ptr %16, align 8, !tbaa !24
  %171 = load ptr, ptr %12, align 8, !tbaa !53
  %172 = getelementptr inbounds nuw %struct.per_transfer, ptr %171, i32 0, i32 31
  store ptr %170, ptr %172, align 8, !tbaa !99
  %173 = load ptr, ptr %12, align 8, !tbaa !53
  %174 = getelementptr inbounds nuw %struct.per_transfer, ptr %173, i32 0, i32 35
  store i8 1, ptr %174, align 1, !tbaa !78
  %175 = load i64, ptr @all_added, align 8, !tbaa !40
  %176 = add nsw i64 %175, 1
  store i64 %176, ptr @all_added, align 8, !tbaa !40
  %177 = load ptr, ptr %11, align 8, !tbaa !89
  store i8 1, ptr %177, align 1, !tbaa !43
  br label %178

178:                                              ; preds = %162, %85, %73
  %179 = load ptr, ptr %12, align 8, !tbaa !53
  %180 = getelementptr inbounds nuw %struct.per_transfer, ptr %179, i32 0, i32 0
  %181 = load ptr, ptr %180, align 8, !tbaa !80
  store ptr %181, ptr %12, align 8, !tbaa !53
  br label %51, !llvm.loop !146

182:                                              ; preds = %61
  %183 = load ptr, ptr %12, align 8, !tbaa !53
  %184 = icmp ne ptr %183, null
  br i1 %184, label %188, label %185

185:                                              ; preds = %182
  %186 = load i8, ptr %15, align 1, !tbaa !43, !range !44, !noundef !45
  %187 = trunc i8 %186 to i1
  br label %188

188:                                              ; preds = %185, %182
  %189 = phi i1 [ true, %182 ], [ %187, %185 ]
  %190 = load ptr, ptr %10, align 8, !tbaa !89
  %191 = zext i1 %189 to i8
  store i8 %191, ptr %190, align 1, !tbaa !43
  store i32 0, ptr %6, align 4
  store i32 1, ptr %18, align 4
  br label %192

192:                                              ; preds = %188, %159, %100, %94, %46
  call void @llvm.lifetime.end.p0(i64 8, ptr %16) #10
  call void @llvm.lifetime.end.p0(i64 1, ptr %15) #10
  call void @llvm.lifetime.end.p0(i64 4, ptr %14) #10
  call void @llvm.lifetime.end.p0(i64 4, ptr %13) #10
  call void @llvm.lifetime.end.p0(i64 8, ptr %12) #10
  %193 = load i32, ptr %6, align 4
  ret i32 %193
}