; Function Attrs: nounwind uwtable
define internal fastcc i32 @add_parallel_transfers(ptr noundef %0, ptr noundef %1, ptr noundef %2, ptr noundef nonnull writeonly captures(none) initializes((0, 1)) %3, ptr noundef nonnull captures(none) initializes((0, 1)) %4) unnamed_addr #0 {
  %6 = alloca i8, align 1
  %7 = alloca i8, align 1
  %8 = alloca i8, align 1
  store i8 0, ptr %4, align 1, !tbaa !34
  store i8 0, ptr %3, align 1, !tbaa !34
  %9 = load i64, ptr @all_pers, align 8, !tbaa !50
  %10 = getelementptr inbounds nuw i8, ptr %0, i64 74
  %11 = load i16, ptr %10, align 2, !tbaa !131
  %12 = zext i16 %11 to i64
  %13 = shl nuw nsw i64 %12, 1
  %14 = icmp slt i64 %9, %13
  br i1 %14, label %15, label %22

15:                                               ; preds = %5
  call void @llvm.lifetime.start.p0(i64 1, ptr nonnull %6) #16
  store i8 0, ptr %6, align 1, !tbaa !34
  br label %16

16:                                               ; preds = %18, %15
  %17 = call fastcc i32 @create_transfer(ptr noundef %0, ptr noundef %2, ptr noundef %4, ptr noundef %6)
  %.not = icmp eq i32 %17, 0
  br i1 %.not, label %18, label %.critedge68

18:                                               ; preds = %16
  %19 = load i8, ptr %6, align 1, !tbaa !34, !range !35, !noundef !36
  %20 = trunc nuw i8 %19 to i1
  br i1 %20, label %16, label %21, !llvm.loop !132

21:                                               ; preds = %18
  call void @llvm.lifetime.end.p0(i64 1, ptr nonnull %6) #16
  br label %22

22:                                               ; preds = %21, %5
  %.05372 = load ptr, ptr @transfers, align 8, !tbaa !57
  %.not5973 = icmp eq ptr %.05372, null
  br i1 %.not5973, label %.critedge, label %.lr.ph

.lr.ph:                                           ; preds = %22
  %23 = getelementptr inbounds nuw i8, ptr %0, i64 76
  %.pre81 = load i64, ptr @all_added, align 8, !tbaa !50
  br label %24

24:                                               ; preds = %.lr.ph, %77
  %25 = phi i64 [ %.pre81, %.lr.ph ], [ %78, %77 ]
  %.05375 = phi ptr [ %.05372, %.lr.ph ], [ %.053, %77 ]
  %.05174 = phi i8 [ 0, %.lr.ph ], [ %.152, %77 ]
  %26 = load i16, ptr %10, align 2, !tbaa !131
  %27 = zext i16 %26 to i64
  %28 = icmp slt i64 %25, %27
  br i1 %28, label %29, label %.critedge.loopexit

29:                                               ; preds = %24
  %30 = getelementptr inbounds nuw i8, ptr %.05375, i64 475
  %31 = load i8, ptr %30, align 1, !tbaa !59, !range !35, !noundef !36
  %32 = trunc nuw i8 %31 to i1
  br i1 %32, label %77, label %33

33:                                               ; preds = %29
  %34 = getelementptr inbounds nuw i8, ptr %.05375, i64 477
  %35 = load i8, ptr %34, align 1, !tbaa !79, !range !35, !noundef !36
  %36 = trunc nuw i8 %35 to i1
  br i1 %36, label %77, label %37

37:                                               ; preds = %33
  %38 = getelementptr inbounds nuw i8, ptr %.05375, i64 392
  %39 = load i64, ptr %38, align 8, !tbaa !72
  %.not60 = icmp eq i64 %39, 0
  br i1 %.not60, label %44, label %40

40:                                               ; preds = %37
  %41 = tail call i64 @time(ptr noundef null) #16
  %42 = load i64, ptr %38, align 8, !tbaa !72
  %43 = icmp slt i64 %41, %42
  %.pre = load i64, ptr @all_added, align 8, !tbaa !50
  br i1 %43, label %77, label %44

44:                                               ; preds = %40, %37
  store i8 1, ptr %30, align 1, !tbaa !59
  %45 = tail call fastcc i32 @pre_transfer(ptr noundef nonnull %0, ptr noundef %.05375)
  %.not61 = icmp eq i32 %45, 0
  br i1 %.not61, label %46, label %.loopexit

46:                                               ; preds = %44
  %47 = tail call noalias dereferenceable_or_null(256) ptr @malloc(i64 noundef 256) #19
  %.not62 = icmp eq ptr %47, null
  br i1 %.not62, label %.loopexit, label %48

48:                                               ; preds = %46
  %49 = getelementptr inbounds nuw i8, ptr %.05375, i64 32
  %50 = load ptr, ptr %49, align 8, !tbaa !80
  %51 = load i8, ptr %23, align 4, !tbaa !133, !range !35, !noundef !36
  %52 = xor i8 %51, 1
  %not. = zext nneg i8 %52 to i64
  %53 = tail call i32 (ptr, i32, ...) @curl_easy_setopt(ptr noundef %50, i32 noundef 237, i64 noundef %not.) #16
  %54 = load ptr, ptr %49, align 8, !tbaa !80
  %55 = tail call i32 (ptr, i32, ...) @curl_easy_setopt(ptr noundef %54, i32 noundef 10103, ptr noundef nonnull %.05375) #16
  %56 = load ptr, ptr %49, align 8, !tbaa !80
  %57 = tail call i32 (ptr, i32, ...) @curl_easy_setopt(ptr noundef %56, i32 noundef 20219, ptr noundef nonnull @xferinfo_cb) #16
  %58 = load ptr, ptr %49, align 8, !tbaa !80
  %59 = tail call i32 (ptr, i32, ...) @curl_easy_setopt(ptr noundef %58, i32 noundef 10057, ptr noundef nonnull %.05375) #16
  %60 = load ptr, ptr %49, align 8, !tbaa !80
  %61 = tail call i32 (ptr, i32, ...) @curl_easy_setopt(ptr noundef %60, i32 noundef 43, i64 noundef 0) #16
  %62 = load ptr, ptr %49, align 8, !tbaa !80
  %63 = tail call i32 @curl_multi_add_handle(ptr noundef %1, ptr noundef %62) #16
  %.not63 = icmp eq i32 %63, 0
  br i1 %.not63, label %64, label %.thread

64:                                               ; preds = %48
  call void @llvm.lifetime.start.p0(i64 1, ptr nonnull %7) #16
  call void @llvm.lifetime.start.p0(i64 1, ptr nonnull %8) #16
  store i8 0, ptr %8, align 1, !tbaa !34
  br label %65

65:                                               ; preds = %67, %64
  %66 = call fastcc i32 @create_transfer(ptr noundef nonnull %0, ptr noundef %2, ptr noundef %7, ptr noundef %8)
  %.not65 = icmp eq i32 %66, 0
  br i1 %.not65, label %67, label %70

67:                                               ; preds = %65
  %68 = load i8, ptr %8, align 1, !tbaa !34, !range !35, !noundef !36
  %69 = trunc nuw i8 %68 to i1
  br i1 %69, label %65, label %71, !llvm.loop !134

70:                                               ; preds = %65
  call void @llvm.lifetime.end.p0(i64 1, ptr nonnull %8) #16
  call void @llvm.lifetime.end.p0(i64 1, ptr nonnull %7) #16
  br label %.thread

.thread:                                          ; preds = %48, %70
  %.15584 = phi i32 [ %66, %70 ], [ 27, %48 ]
  tail call void @free(ptr noundef %47) #16
  br label %.loopexit

71:                                               ; preds = %67
  call void @llvm.lifetime.end.p0(i64 1, ptr nonnull %8) #16
  call void @llvm.lifetime.end.p0(i64 1, ptr nonnull %7) #16
  store i8 0, ptr %47, align 1, !tbaa !70
  %72 = load ptr, ptr %49, align 8, !tbaa !80
  %73 = tail call i32 (ptr, i32, ...) @curl_easy_setopt(ptr noundef %72, i32 noundef 10010, ptr noundef nonnull %47) #16
  %74 = getelementptr inbounds nuw i8, ptr %.05375, i64 464
  store ptr %47, ptr %74, align 8, !tbaa !71
  store i8 1, ptr %30, align 1, !tbaa !59
  %75 = load i64, ptr @all_added, align 8, !tbaa !50
  %76 = add nsw i64 %75, 1
  store i64 %76, ptr @all_added, align 8, !tbaa !50
  store i8 1, ptr %4, align 1, !tbaa !34
  br label %77

77:                                               ; preds = %40, %29, %33, %71
  %78 = phi i64 [ %25, %29 ], [ %25, %33 ], [ %76, %71 ], [ %.pre, %40 ]
  %.152 = phi i8 [ %.05174, %29 ], [ %.05174, %33 ], [ %.05174, %71 ], [ 1, %40 ]
  %.053 = load ptr, ptr %.05375, align 8, !tbaa !57
  %.not59 = icmp eq ptr %.053, null
  br i1 %.not59, label %.critedge.loopexit, label %24, !llvm.loop !135

.critedge.loopexit:                               ; preds = %77, %24
  %.ph = phi i8 [ 1, %24 ], [ %.152, %77 ]
  %79 = and i8 %.ph, 1
  br label %.critedge

.critedge:                                        ; preds = %.critedge.loopexit, %22
  %80 = phi i8 [ 0, %22 ], [ %79, %.critedge.loopexit ]
  store i8 %80, ptr %3, align 1, !tbaa !34
  br label %.loopexit

.critedge68:                                      ; preds = %16
  call void @llvm.lifetime.end.p0(i64 1, ptr nonnull %6) #16
  br label %.loopexit

.loopexit:                                        ; preds = %46, %44, %.critedge68, %.critedge, %.thread
  %.1 = phi i32 [ %.15584, %.thread ], [ 0, %.critedge ], [ %17, %.critedge68 ], [ 27, %46 ], [ %45, %44 ]
  ret i32 %.1
}